(lp0
(F0.0
F-0.512590
F0.296900
F-1.537162
tp1
a(F1760538590.0567868
F-0.512590
F0.296900
F-1.537162
tp2
a(F1760538590.056798
F-0.512353
F0.288240
F-1.536511
tp3
a(F1760538590.0568006
F-0.506308
F0.118603
F-1.526269
tp4
a(F1760538590.056802
F-0.503278
F0.026321
F-1.776386
tp5
a(F1760538590.056803
F-0.527114
F-0.046894
F-2.051079
tp6
a(F1760538590.0568044
F-0.585806
F-0.126715
F-2.416081
tp7
a(F1760538590.0568058
F-0.680878
F-0.188968
F-2.714424
tp8
a(F1760538590.0568073
F-0.778537
F-0.221544
F-2.971990
tp9
a(F1760538590.0568082
F-0.883907
F-0.225843
F3.051207
tp10
a(F1760538590.0568097
F-0.973792
F-0.208838
F2.814609
tp11
a(F1760538590.056811
F-1.066380
F-0.165096
F2.591855
tp12
a(F1760538590.0568123
F-1.167380
F-0.084281
F2.325234
tp13
a(F1760538590.0568135
F-1.199999
F-0.040380
F2.075305
tp14
a(F1760538590.0568147
F-1.211201
F0.015359
F1.711232
tp15
a(F1760538590.0568156
F-1.224269
F0.199887
F1.624312
tp16
a(F1760538590.0568166
F-1.234831
F0.480221
F1.597873
tp17
a(F1760538590.056818
F-1.237565
F0.743726
F1.545566
tp18
a(F1760538590.056819
F-1.222317
F1.032904
F1.442460
tp19
a(F1760538590.0568202
F-1.220970
F1.047738
F1.207440
tp20
a(F1760538590.0568216
F-1.192243
F1.095101
F0.864174
tp21
a(F1760538590.0568223
F-1.094500
F1.186469
F0.627115
tp22
a(F1760538590.0568235
F-0.969899
F1.264955
F0.150950
tp23
a(F1760538590.0568247
F-0.824085
F1.270532
F-0.100858
tp24
a(F1760538590.056831
F-0.824082
F1.270631
F-0.100717
tp25
a(F1760538590.0568323
F-0.637829
F1.251014
F-0.124444
tp26
a(F1760538590.0568337
F-0.434375
F1.222874
F-0.180796
tp27
a(F1760538590.0568347
F-0.409413
F1.218029
F-0.140678
tp28
a(F1760538590.056836
F-0.377215
F1.214230
F-0.112311
tp29
a(F1760538590.0568368
F-0.132776
F1.183898
F-0.136728
tp30
a(F1760538590.056838
F0.004285
F1.159772
F-0.265697
tp31
a(F1760538590.0568392
F0.081764
F1.133358
F-0.609755
tp32
a(F1760538590.0568402
F0.167735
F1.051336
F-0.892630
tp33
a(F1760538590.0568411
F0.188537
F1.022004
F-1.209979
tp34
a(F1760538590.0568428
F0.199673
F0.914770
F-1.501396
tp35
a(F1760538590.056844
F0.211887
F0.641545
F-1.546522
tp36
a(F1760538590.0568454
F0.198440
F0.306536
F-1.628067
tp37
a(F1760538590.0568466
F0.170470
F-0.080857
F-1.690991
tp38
a(F1760538590.0568476
F0.167894
F-0.094715
F-2.095717
tp39
a(F1760538590.056849
F0.157168
F-0.108383
F-2.438650
tp40
a(F1760538590.05685
F0.072157
F-0.163787
F-2.768555
tp41
a(F1760538590.0568511
F-0.048267
F-0.195528
F-3.019351
tp42
a(F1760538590.0568526
F-0.161805
F-0.204672
F-3.132160
tp43
a.
