(lp0
(F0.0
F-0.512590
F0.296900
F-1.537162
tp1
a(F1760539085.205276
F-0.512558
F0.296910
F-1.537292
tp2
a(F1760539085.205292
F-0.512611
F0.296899
F-1.537087
tp3
a(F1760539085.2052956
F-0.508561
F0.182233
F-1.529673
tp4
a(F1760539085.205298
F-0.504136
F0.093033
F-1.700423
tp5
a(F1760539085.2053003
F-0.529245
F-0.024098
F-1.941980
tp6
a(F1760539085.2053022
F-0.560106
F-0.075825
F-2.258934
tp7
a(F1760539085.2053046
F-0.614206
F-0.124745
F-2.563325
tp8
a(F1760539085.2053063
F-0.731391
F-0.178110
F-2.829186
tp9
a(F1760539085.2053082
F-0.869604
F-0.207001
F-3.019338
tp10
a(F1760539085.2053099
F-1.018951
F-0.216953
F3.114377
tp11
a(F1760539085.205312
F-1.101404
F-0.210852
F2.803023
tp12
a(F1760539085.2053137
F-1.125678
F-0.193202
F2.348582
tp13
a(F1760539085.2053156
F-1.198858
F-0.094228
F2.033143
tp14
a(F1760539085.205317
F-1.239150
F0.024596
F1.778745
tp15
a(F1760539085.2053192
F-1.264602
F0.232853
F1.643538
tp16
a(F1760539085.205321
F-1.270543
F0.441026
F1.495849
tp17
a(F1760539085.2053227
F-1.197962
F0.859175
F1.338234
tp18
a(F1760539085.205325
F-1.141734
F1.076475
F1.114013
tp19
a(F1760539085.2053263
F-1.094751
F1.159524
F0.907521
tp20
a(F1760539085.2053282
F-1.001737
F1.249127
F0.648262
tp21
a(F1760539085.20533
F-0.989911
F1.257997
F0.353149
tp22
a(F1760539085.2053394
F-0.843188
F1.287517
F0.082168
tp23
a(F1760539085.2053497
F-0.649522
F1.290664
F-0.068046
tp24
a(F1760539085.2053516
F-0.482064
F1.270546
F-0.207910
tp25
a(F1760539085.2053535
F-0.419312
F1.254896
F-0.263634
tp26
a(F1760539085.205356
F-0.204422
F1.200939
F-0.283230
tp27
a(F1760539085.2053573
F-0.056721
F1.162834
F-0.242218
tp28
a(F1760539085.2053587
F-0.038840
F1.158429
F-0.068572
tp29
a(F1760539085.2053607
F0.061447
F1.157134
F-0.012605
tp30
a(F1760539085.205362
F0.491659
F1.147492
F-0.034668
tp31
a(F1760539085.2053638
F0.918120
F1.132699
F-0.060878
tp32
a(F1760539085.2053654
F1.045570
F1.107399
F-0.368850
tp33
a(F1760539085.205367
F1.097854
F1.078772
F-0.792711
tp34
a(F1760539085.2053688
F1.171605
F0.987433
F-1.024795
tp35
a(F1760539085.2053704
F1.226369
F0.857170
F-1.266599
tp36
a(F1760539085.205372
F1.240119
F0.788152
F-1.534032
tp37
a(F1760539085.2053735
F1.217725
F0.538911
F-1.717030
tp38
a(F1760539085.205375
F1.186924
F0.340698
F-1.706820
tp39
a(F1760539085.2053769
F1.104554
F-0.194714
F-1.776421
tp40
a(F1760539085.2053783
F1.067925
F-0.418845
F-1.567674
tp41
a(F1760539085.2053802
F1.132931
F-0.795248
F-1.323160
tp42
a(F1760539085.2053816
F1.173793
F-0.941944
F-1.372906
tp43
a(F1760539085.205383
F1.175738
F-0.954412
F-1.829320
tp44
a(F1760539085.2053847
F1.176171
F-0.959066
F-2.162808
tp45
a(F1760539085.2053862
F1.104693
F-1.041045
F-2.349229
tp46
a(F1760539085.2053878
F1.048042
F-1.089519
F-2.695752
tp47
a(F1760539085.2053897
F0.876062
F-1.158209
F-2.882010
tp48
a(F1760539085.2053914
F0.697163
F-1.204850
F3.026637
tp49
a(F1760539085.205393
F0.591022
F-1.196202
F3.043934
tp50
a(F1760539085.2053947
F0.188851
F-1.161423
F3.002525
tp51
a(F1760539085.2053964
F-0.105551
F-1.114884
F2.869027
tp52
a(F1760539085.205398
F-0.101310
F-1.119502
F2.477295
tp53
a(F1760539085.2053995
F-0.121298
F-1.093856
F2.132601
tp54
a(F1760539085.2054012
F-0.162023
F-0.997812
F1.868713
tp55
a(F1760539085.2054029
F-0.173725
F-0.932899
F1.619668
tp56
a(F1760539085.2054048
F-0.175569
F-0.784688
F1.549317
tp57
a(F1760539085.2054064
F-0.164856
F-0.629450
F1.421526
tp58
a(F1760539085.2054083
F-0.158685
F-0.591610
F1.392977
tp59
a(F1760539085.2054124
F-0.157291
F-0.582303
F1.554435
tp60
a(F1760539085.2054138
F-0.158656
F-0.422009
F1.582134
tp61
a(F1760539085.2054155
F-0.156625
F-0.427477
F1.802586
tp62
a(F1760539085.2054172
F-0.174029
F-0.377441
F1.944314
tp63
a(F1760539085.2054188
F-0.205394
F-0.309577
F2.090094
tp64
a(F1760539085.2054203
F-0.282123
F-0.178788
F2.207635
tp65
a(F1760539085.2054224
F-0.367702
F-0.061166
F2.178664
tp66
a(F1760539085.2054243
F-0.457126
F0.061195
F2.166201
tp67
a(F1760539085.205426
F-0.485928
F0.101998
F2.010291
tp68
a(F1760539085.2054274
F-0.487717
F0.104763
F1.662910
tp69
a(F1760539085.205429
F-0.514101
F0.295193
F1.530773
tp70
a.
