(lp0
(F0.0
F-0.512590
F0.296900
F-1.537162
tp1
a(F1760539379.3506181
F-0.512743
F0.296870
F-1.536589
tp2
a(F1760539379.3506377
F-0.511608
F0.262194
F-1.534905
tp3
a(F1760539379.35064
F-0.503489
F0.058003
F-1.519125
tp4
a(F1760539379.350642
F-0.496595
F-0.002270
F-1.227497
tp5
a(F1760539379.3506436
F-0.461067
F-0.089405
F-0.862528
tp6
a(F1760539379.3506455
F-0.415383
F-0.133391
F-0.555190
tp7
a(F1760539379.3506472
F-0.306575
F-0.179638
F-0.208279
tp8
a(F1760539379.3506489
F-0.150856
F-0.204891
F0.010923
tp9
a(F1760539379.3506503
F-0.063966
F-0.200118
F0.087683
tp10
a(F1760539379.3506522
F0.259049
F-0.164785
F0.131306
tp11
a(F1760539379.350654
F0.426060
F-0.148791
F0.060512
tp12
a(F1760539379.3506553
F0.656259
F-0.146384
F-0.029242
tp13
a(F1760539379.3506567
F0.897903
F-0.158263
F-0.111778
tp14
a(F1760539379.350658
F1.003952
F-0.179219
F-0.357091
tp15
a(F1760539379.3506596
F1.082902
F-0.215547
F-0.688381
tp16
a(F1760539379.350661
F1.158970
F-0.293952
F-1.133261
tp17
a(F1760539379.3506627
F1.195818
F-0.414758
F-1.410033
tp18
a(F1760539379.350664
F1.203463
F-0.558960
F-1.589312
tp19
a(F1760539379.3506656
F1.196099
F-0.884763
F-1.645206
tp20
a(F1760539379.3506668
F1.177290
F-0.989844
F-1.912387
tp21
a(F1760539379.350668
F1.119927
F-1.111607
F-2.165859
tp22
a(F1760539379.350675
F1.101322
F-1.128982
F-2.556563
tp23
a(F1760539379.3506765
F1.028713
F-1.159761
F-2.844167
tp24
a(F1760539379.350678
F0.844685
F-1.200657
F-3.088316
tp25
a(F1760539379.3506794
F0.602501
F-1.199327
F3.097261
tp26
a(F1760539379.350681
F0.277467
F-1.166827
F2.993273
tp27
a(F1760539379.3506827
F0.226121
F-1.161420
F3.071352
tp28
a(F1760539379.350684
F-0.371450
F-1.097818
F2.980895
tp29
a(F1760539379.350685
F-0.569915
F-1.088661
F3.141016
tp30
a(F1760539379.3506858
F-0.796154
F-1.093162
F-3.119545
tp31
a(F1760539379.3506873
F-0.985861
F-1.085592
F2.994852
tp32
a(F1760539379.3506885
F-1.088174
F-1.055391
F2.661407
tp33
a(F1760539379.3506896
F-1.132589
F-1.024939
F2.374594
tp34
a(F1760539379.3506908
F-1.183945
F-0.962795
F2.115124
tp35
a(F1760539379.350692
F-1.207423
F-0.905922
F1.784358
tp36
a(F1760539379.3506932
F-1.222958
F-0.785507
F1.588969
tp37
a(F1760539379.3506944
F-1.236319
F-0.324147
F1.615735
tp38
a(F1760539379.3506956
F-1.261388
F0.183266
F1.615863
tp39
a(F1760539379.3506973
F-1.277597
F0.558383
F1.610680
tp40
a(F1760539379.3506985
F-1.276996
F0.593247
F1.417073
tp41
a(F1760539379.3506997
F-1.241956
F0.767744
F1.310379
tp42
a(F1760539379.3507013
F-1.162023
F1.026769
F1.115299
tp43
a(F1760539379.350703
F-1.068821
F1.187621
F0.885002
tp44
a(F1760539379.3507047
F-1.036492
F1.226158
F0.660696
tp45
a(F1760539379.3507056
F-0.980528
F1.254623
F0.390039
tp46
a(F1760539379.350707
F-0.831614
F1.301749
F0.198914
tp47
a(F1760539379.3507085
F-0.829277
F1.303199
F0.009773
tp48
a(F1760539379.3507097
F-0.447022
F1.309444
F0.020529
tp49
a(F1760539379.350711
F-0.199206
F1.314072
F-0.024393
tp50
a(F1760539379.350712
F-0.095451
F1.301810
F-0.156982
tp51
a(F1760539379.3507133
F0.010106
F1.285773
F-0.151164
tp52
a(F1760539379.3507147
F0.074920
F1.278126
F-0.122443
tp53
a(F1760539379.3507156
F0.381593
F1.226061
F-0.209775
tp54
a(F1760539379.3507178
F0.463678
F1.222352
F-0.024686
tp55
a(F1760539379.3507187
F1.071274
F1.193974
F-0.100100
tp56
a(F1760539379.35072
F1.118102
F1.180006
F-0.456454
tp57
a(F1760539379.3507211
F1.183936
F1.143796
F-0.762702
tp58
a(F1760539379.350722
F1.211961
F1.100118
F-1.077348
tp59
a(F1760539379.350725
F1.237047
F1.043631
F-1.358923
tp60
a(F1760539379.350726
F1.239509
F0.960621
F-1.566156
tp61
a(F1760539379.3507268
F1.245580
F0.468625
F-1.566845
tp62
a(F1760539379.3507283
F1.240714
F0.246982
F-1.681437
tp63
a(F1760539379.3507295
F1.199209
F0.034217
F-1.908326
tp64
a(F1760539379.3507307
F1.159838
F-0.045268
F-2.285246
tp65
a(F1760539379.3507318
F1.095694
F-0.103493
F-2.570419
tp66
a(F1760539379.3507333
F1.006987
F-0.141125
F-2.919792
tp67
a(F1760539379.3507342
F0.754500
F-0.185333
F-2.983737
tp68
a(F1760539379.3507354
F0.591794
F-0.202306
F3.112829
tp69
a(F1760539379.3507364
F0.587375
F-0.202166
F3.133692
tp70
a(F1760539379.3507373
F-0.034840
F-0.193577
F3.114842
tp71
a(F1760539379.350739
F-0.366533
F-0.183528
F2.959822
tp72
a(F1760539379.35074
F-0.361729
F-0.187936
F2.578410
tp73
a(F1760539379.3507411
F-0.428698
F-0.129839
F2.317376
tp74
a(F1760539379.3507423
F-0.450324
F-0.108157
F1.871011
tp75
a(F1760539379.3507435
F-0.451804
F-0.093310
F1.620208
tp76
a(F1760539379.3507445
F-0.458468
F-0.011182
F1.679074
tp77
a(F1760539379.3507457
F-0.477937
F0.170650
F1.690206
tp78
a(F1760539379.3507476
F-0.496307
F0.304183
F1.633918
tp79
a.
